Certificate:
    Data:
        Version: 3 (0x2)
        Serial Number:
            91:f0:17:e6:05:19:c6:e6
        Signature Algorithm: sha1WithRSAEncryption
        Issuer: C=US, ST=Washington, L=Seattle, O=John's Software Plumbing LLC, OU=development, CN=John's Software Plumbing CA
        Validity
            Not Before: Oct 16 16:44:52 2014 GMT
            Not After : Jul 12 16:44:52 2017 GMT
        Subject: C=US, ST=Washington, L=Seattle, O=John's Software Plumbing LLC, OU=development, CN=John's Software Plumbing CA
        Subject Public Key Info:
            Public Key Algorithm: rsaEncryption
            RSA Public Key: (512 bit)
                Modulus (512 bit):
                    00:a8:6f:21:76:f4:e6:f6:09:6e:1c:f7:1c:58:39:
                    93:cb:6b:1a:18:e9:85:8e:2a:33:9e:4f:61:97:89:
                    b7:46:23:43:94:ee:8e:75:0d:59:07:91:95:17:5f:
                    ef:41:21:69:ef:8f:b3:e1:31:ad:d4:e1:bc:14:2e:
                    35:08:e8:44:25
                Exponent: 65537 (0x10001)
        X509v3 extensions:
            X509v3 Subject Key Identifier: 
                27:53:B7:44:D2:08:DC:77:E4:8C:A6:29:B2:14:D3:D6:40:7C:3A:D1
            X509v3 Authority Key Identifier: 
                keyid:27:53:B7:44:D2:08:DC:77:E4:8C:A6:29:B2:14:D3:D6:40:7C:3A:D1
                DirName:/C=US/ST=Washington/L=Seattle/O=John's Software Plumbing LLC/OU=development/CN=John's Software Plumbing CA
                serial:91:F0:17:E6:05:19:C6:E6

            X509v3 Basic Constraints: 
                CA:TRUE
    Signature Algorithm: sha1WithRSAEncryption
        77:8f:49:63:39:bd:88:7b:54:fc:d9:3e:b2:14:9d:73:5c:c9:
        31:df:1a:b0:85:46:4b:b5:ee:3b:a4:3b:91:c1:f0:07:14:31:
        8e:a0:4e:6b:b8:3a:51:13:71:a3:7f:21:8f:6a:37:a9:e7:23:
        86:bc:13:5a:58:ba:7b:28:e4:b8
-----BEGIN CERTIFICATE-----
MIIDKTCCAtOgAwIBAgIJAJHwF+YFGcbmMA0GCSqGSIb3DQEBBQUAMIGXMQswCQYD
VQQGEwJVUzETMBEGA1UECBMKV2FzaGluZ3RvbjEQMA4GA1UEBxMHU2VhdHRsZTEl
MCMGA1UEChMcSm9obidzIFNvZnR3YXJlIFBsdW1iaW5nIExMQzEUMBIGA1UECxML
ZGV2ZWxvcG1lbnQxJDAiBgNVBAMTG0pvaG4ncyBTb2Z0d2FyZSBQbHVtYmluZyBD
QTAeFw0xNDEwMTYxNjQ0NTJaFw0xNzA3MTIxNjQ0NTJaMIGXMQswCQYDVQQGEwJV
UzETMBEGA1UECBMKV2FzaGluZ3RvbjEQMA4GA1UEBxMHU2VhdHRsZTElMCMGA1UE
ChMcSm9obidzIFNvZnR3YXJlIFBsdW1iaW5nIExMQzEUMBIGA1UECxMLZGV2ZWxv
cG1lbnQxJDAiBgNVBAMTG0pvaG4ncyBTb2Z0d2FyZSBQbHVtYmluZyBDQTBcMA0G
CSqGSIb3DQEBAQUAA0sAMEgCQQCobyF29Ob2CW4c9xxYOZPLaxoY6YWOKjOeT2GX
ibdGI0OU7o51DVkHkZUXX+9BIWnvj7PhMa3U4bwULjUI6EQlAgMBAAGjgf8wgfww
HQYDVR0OBBYEFCdTt0TSCNx35IymKbIU09ZAfDrRMIHMBgNVHSMEgcQwgcGAFCdT
t0TSCNx35IymKbIU09ZAfDrRoYGdpIGaMIGXMQswCQYDVQQGEwJVUzETMBEGA1UE
CBMKV2FzaGluZ3RvbjEQMA4GA1UEBxMHU2VhdHRsZTElMCMGA1UEChMcSm9obidz
IFNvZnR3YXJlIFBsdW1iaW5nIExMQzEUMBIGA1UECxMLZGV2ZWxvcG1lbnQxJDAi
BgNVBAMTG0pvaG4ncyBTb2Z0d2FyZSBQbHVtYmluZyBDQYIJAJHwF+YFGcbmMAwG
A1UdEwQFMAMBAf8wDQYJKoZIhvcNAQEFBQADQQB3j0ljOb2Ie1T82T6yFJ1zXMkx
3xqwhUZLte47pDuRwfAHFDGOoE5ruDpRE3GjfyGPajep5yOGvBNaWLp7KOS4
-----END CERTIFICATE-----
