Certificate:
    Data:
        Version: 1 (0x0)
        Serial Number: 1 (0x1)
        Signature Algorithm: sha1WithRSAEncryption
        Issuer: C=US, ST=Washington, L=Seattle, O=John's Software Plumbing LLC, OU=development, CN=John's Software Plumbing CA
        Validity
            Not Before: Oct 16 16:59:13 2014 GMT
            Not After : Jul 12 16:59:13 2017 GMT
        Subject: C=US, ST=Washington, L=Seattle, O=John's Software Plumbing LLC, OU=development, CN=svrA.dalek.local
        Subject Public Key Info:
            Public Key Algorithm: rsaEncryption
            RSA Public Key: (512 bit)
                Modulus (512 bit):
                    00:a8:6f:21:76:f4:e6:f6:09:6e:1c:f7:1c:58:39:
                    93:cb:6b:1a:18:e9:85:8e:2a:33:9e:4f:61:97:89:
                    b7:46:23:43:94:ee:8e:75:0d:59:07:91:95:17:5f:
                    ef:41:21:69:ef:8f:b3:e1:31:ad:d4:e1:bc:14:2e:
                    35:08:e8:44:25
                Exponent: 65537 (0x10001)
    Signature Algorithm: sha1WithRSAEncryption
        34:9e:1a:33:90:d3:83:8f:7e:94:1e:a7:83:76:10:40:0e:e2:
        f0:76:d7:48:08:c1:87:c6:fe:5d:88:fa:fa:43:a1:c1:0f:80:
        24:0b:7b:8f:3c:18:b7:2b:34:77:83:64:53:20:1d:c3:a2:75:
        90:da:d1:0f:f3:10:34:cb:ee:ea
-----BEGIN CERTIFICATE-----
MIICDzCCAbkCAQEwDQYJKoZIhvcNAQEFBQAwgZcxCzAJBgNVBAYTAlVTMRMwEQYD
VQQIEwpXYXNoaW5ndG9uMRAwDgYDVQQHEwdTZWF0dGxlMSUwIwYDVQQKExxKb2hu
J3MgU29mdHdhcmUgUGx1bWJpbmcgTExDMRQwEgYDVQQLEwtkZXZlbG9wbWVudDEk
MCIGA1UEAxMbSm9obidzIFNvZnR3YXJlIFBsdW1iaW5nIENBMB4XDTE0MTAxNjE2
NTkxM1oXDTE3MDcxMjE2NTkxM1owgYwxCzAJBgNVBAYTAlVTMRMwEQYDVQQIEwpX
YXNoaW5ndG9uMRAwDgYDVQQHEwdTZWF0dGxlMSUwIwYDVQQKExxKb2huJ3MgU29m
dHdhcmUgUGx1bWJpbmcgTExDMRQwEgYDVQQLEwtkZXZlbG9wbWVudDEZMBcGA1UE
AxMQc3ZyQS5kYWxlay5sb2NhbDBcMA0GCSqGSIb3DQEBAQUAA0sAMEgCQQCobyF2
9Ob2CW4c9xxYOZPLaxoY6YWOKjOeT2GXibdGI0OU7o51DVkHkZUXX+9BIWnvj7Ph
Ma3U4bwULjUI6EQlAgMBAAEwDQYJKoZIhvcNAQEFBQADQQA0nhozkNODj36UHqeD
dhBADuLwdtdICMGHxv5diPr6Q6HBD4AkC3uPPBi3KzR3g2RTIB3DonWQ2tEP8xA0
y+7q
-----END CERTIFICATE-----
