Certificate:
    Data:
        Version: 1 (0x0)
        Serial Number: 2 (0x2)
        Signature Algorithm: sha1WithRSAEncryption
        Issuer: C=US, ST=Washington, L=Seattle, O=John's Software Plumbing LLC, OU=development, CN=John's Software Plumbing CA
        Validity
            Not Before: Oct 16 17:00:15 2014 GMT
            Not After : Jul 12 17:00:15 2017 GMT
        Subject: C=US, ST=Washington, L=Seattle, O=John's Software Plumbing LLC, OU=development, CN=svrB.dalek.local
        Subject Public Key Info:
            Public Key Algorithm: rsaEncryption
            RSA Public Key: (512 bit)
                Modulus (512 bit):
                    00:a8:6f:21:76:f4:e6:f6:09:6e:1c:f7:1c:58:39:
                    93:cb:6b:1a:18:e9:85:8e:2a:33:9e:4f:61:97:89:
                    b7:46:23:43:94:ee:8e:75:0d:59:07:91:95:17:5f:
                    ef:41:21:69:ef:8f:b3:e1:31:ad:d4:e1:bc:14:2e:
                    35:08:e8:44:25
                Exponent: 65537 (0x10001)
    Signature Algorithm: sha1WithRSAEncryption
        11:a0:0d:91:d2:18:77:04:e1:52:d5:ad:59:0a:22:d3:20:14:
        4b:9f:27:07:28:3f:5b:f2:bb:d7:b4:b0:a0:0f:b3:01:99:52:
        d0:d1:16:b2:02:c8:68:0a:5f:6a:40:11:a8:29:71:61:67:1e:
        83:78:a7:cf:14:d0:c5:47:63:c5
-----BEGIN CERTIFICATE-----
MIICDzCCAbkCAQIwDQYJKoZIhvcNAQEFBQAwgZcxCzAJBgNVBAYTAlVTMRMwEQYD
VQQIEwpXYXNoaW5ndG9uMRAwDgYDVQQHEwdTZWF0dGxlMSUwIwYDVQQKExxKb2hu
J3MgU29mdHdhcmUgUGx1bWJpbmcgTExDMRQwEgYDVQQLEwtkZXZlbG9wbWVudDEk
MCIGA1UEAxMbSm9obidzIFNvZnR3YXJlIFBsdW1iaW5nIENBMB4XDTE0MTAxNjE3
MDAxNVoXDTE3MDcxMjE3MDAxNVowgYwxCzAJBgNVBAYTAlVTMRMwEQYDVQQIEwpX
YXNoaW5ndG9uMRAwDgYDVQQHEwdTZWF0dGxlMSUwIwYDVQQKExxKb2huJ3MgU29m
dHdhcmUgUGx1bWJpbmcgTExDMRQwEgYDVQQLEwtkZXZlbG9wbWVudDEZMBcGA1UE
AxMQc3ZyQi5kYWxlay5sb2NhbDBcMA0GCSqGSIb3DQEBAQUAA0sAMEgCQQCobyF2
9Ob2CW4c9xxYOZPLaxoY6YWOKjOeT2GXibdGI0OU7o51DVkHkZUXX+9BIWnvj7Ph
Ma3U4bwULjUI6EQlAgMBAAEwDQYJKoZIhvcNAQEFBQADQQARoA2R0hh3BOFS1a1Z
CiLTIBRLnycHKD9b8rvXtLCgD7MBmVLQ0RayAshoCl9qQBGoKXFhZx6DeKfPFNDF
R2PF
-----END CERTIFICATE-----
